target datalayout = "e-m:e-p270:32:32-p271:32:32-p272:64:64-i64:64-i128:128-f80:128-n8:16:32:64-S128"
target triple = "x86_64-pc-linux-gnu"

%struct.Vec_Ptr_t_ = type { i32, i32, ptr }

@.str = private unnamed_addr constant [4 x i8] c" %s\00", align 1
@.str.1 = private unnamed_addr constant [8 x i8] c".subckt\00", align 1
@.str.2 = private unnamed_addr constant [7 x i8] c" %s=%s\00", align 1
@.str.3 = private unnamed_addr constant [2 x i8] c"\0A\00", align 1

; Function Attrs: nounwind uwtable
define void @Bac_PtrDumpBoxBlif(ptr noundef %0, ptr noundef %1) #0 {
  %3 = alloca ptr, align 8
  %4 = alloca ptr, align 8
  %5 = alloca ptr, align 8
  %6 = alloca i32, align 4
  store ptr %0, ptr %3, align 8
  store ptr %1, ptr %4, align 8
  %7 = load ptr, ptr %3, align 8
  %8 = call i32 (ptr, ptr, ...) @fprintf(ptr noundef %7, ptr noundef @.str.1) #9
  %9 = load ptr, ptr %3, align 8
  %10 = load ptr, ptr %4, align 8
  %11 = call ptr @Vec_PtrEntry(ptr noundef %10, i32 noundef 0)
  %12 = call i32 (ptr, ptr, ...) @fprintf(ptr noundef %9, ptr noundef @.str, ptr noundef %11) #9
  store i32 2, ptr %6, align 4
  br label %13

13:                                               ; preds = %34, %2
  %14 = load i32, ptr %6, align 4
  %15 = load ptr, ptr %4, align 8
  %16 = call i32 @Vec_PtrSize(ptr noundef %15)
  %17 = icmp slt i32 %14, %16
  br i1 %17, label %18, label %22

18:                                               ; preds = %13
  %19 = load ptr, ptr %4, align 8
  %20 = load i32, ptr %6, align 4
  %21 = call ptr @Vec_PtrEntry(ptr noundef %19, i32 noundef %20)
  store ptr %21, ptr %5, align 8
  br label %22

22:                                               ; preds = %18, %13
  %23 = phi i1 [ false, %13 ], [ true, %18 ]
  br i1 %23, label %24, label %37

24:                                               ; preds = %22
  %25 = load ptr, ptr %3, align 8
  %26 = load ptr, ptr %5, align 8
  %27 = load ptr, ptr %4, align 8
  %28 = load i32, ptr %6, align 4
  %29 = add nsw i32 %28, 1
  %30 = call ptr @Vec_PtrEntry(ptr noundef %27, i32 noundef %29)
  %31 = call i32 (ptr, ptr, ...) @fprintf(ptr noundef %25, ptr noundef @.str.2, ptr noundef %26, ptr noundef %30) #9
  %32 = load i32, ptr %6, align 4
  %33 = add nsw i32 %32, 1
  store i32 %33, ptr %6, align 4
  br label %34

34:                                               ; preds = %24
  %35 = load i32, ptr %6, align 4
  %36 = add nsw i32 %35, 1
  store i32 %36, ptr %6, align 4
  br label %13, !llvm.loop !10

37:                                               ; preds = %22
  %38 = load ptr, ptr %3, align 8
  %39 = call i32 (ptr, ptr, ...) @fprintf(ptr noundef %38, ptr noundef @.str.3) #9
  ret void
}

; Function Attrs: nounwind uwtable
define internal ptr @Vec_PtrEntry(ptr noundef %0, i32 noundef %1) #0 {
  %3 = alloca ptr, align 8
  %4 = alloca i32, align 4
  store ptr %0, ptr %3, align 8
  store i32 %1, ptr %4, align 4
  %5 = load ptr, ptr %3, align 8
  %6 = getelementptr inbounds %struct.Vec_Ptr_t_, ptr %5, i32 0, i32 2
  %7 = load ptr, ptr %6, align 8
  %8 = load i32, ptr %4, align 4
  %9 = sext i32 %8 to i64
  %10 = getelementptr inbounds ptr, ptr %7, i64 %9
  %11 = load ptr, ptr %10, align 8
  ret ptr %11
}

; Function Attrs: nounwind uwtable
define internal i32 @Vec_PtrSize(ptr noundef %0) #0 {
  %2 = alloca ptr, align 8
  store ptr %0, ptr %2, align 8
  %3 = load ptr, ptr %2, align 8
  %4 = getelementptr inbounds %struct.Vec_Ptr_t_, ptr %3, i32 0, i32 1
  %5 = load i32, ptr %4, align 4
  ret i32 %5
}

; Function Attrs: nounwind uwtable
define void @Bac_PtrDumpBoxesBlif(ptr noundef %0, ptr noundef %1) #0 {
  %3 = alloca ptr, align 8
  %4 = alloca ptr, align 8
  %5 = alloca ptr, align 8
  %6 = alloca i32, align 4
  store ptr %0, ptr %3, align 8
  store ptr %1, ptr %4, align 8
  store i32 0, ptr %6, align 4
  br label %7

7:                                                ; preds = %21, %2
  %8 = load i32, ptr %6, align 4
  %9 = load ptr, ptr %4, align 8
  %10 = call i32 @Vec_PtrSize(ptr noundef %9)
  %11 = icmp slt i32 %8, %10
  br i1 %11, label %12, label %16

12:                                               ; preds = %7
  %13 = load ptr, ptr %4, align 8
  %14 = load i32, ptr %6, align 4
  %15 = call ptr @Vec_PtrEntry(ptr noundef %13, i32 noundef %14)
  store ptr %15, ptr %5, align 8
  br label %16

16:                                               ; preds = %12, %7
  %17 = phi i1 [ false, %7 ], [ true, %12 ]
  br i1 %17, label %18, label %24

18:                                               ; preds = %16
  %19 = load ptr, ptr %3, align 8
  %20 = load ptr, ptr %5, align 8
  call void @Bac_PtrDumpBoxBlif(ptr noundef %19, ptr noundef %20)
  br label %21

21:                                               ; preds = %18
  %22 = load i32, ptr %6, align 4
  %23 = add nsw i32 %22, 1
  store i32 %23, ptr %6, align 4
  br label %7, !llvm.loop !11

24:                                               ; preds = %16
  ret void
}