; Function Attrs: nofree nounwind uwtable
define void @Bac_PtrDumpBoxesBlif(ptr noundef captures(none) %0, ptr noundef readonly captures(none) %1) local_unnamed_addr #3 {
  %3 = getelementptr i8, ptr %1, i64 4
  %.val67 = load i32, ptr %3, align 4
  %4 = icmp sgt i32 %.val67, 0
  br i1 %4, label %.lr.ph, label %.critedge

.lr.ph:                                           ; preds = %2
  %5 = getelementptr i8, ptr %1, i64 8
  br label %6

6:                                                ; preds = %.lr.ph, %Bac_PtrDumpBoxBlif.exit
  %indvars.iv = phi i64 [ 0, %.lr.ph ], [ %indvars.iv.next, %Bac_PtrDumpBoxBlif.exit ]
  %.val = load ptr, ptr %5, align 8
  %7 = getelementptr inbounds nuw ptr, ptr %.val, i64 %indvars.iv
  %8 = load ptr, ptr %7, align 8
  %9 = tail call i64 @fwrite(ptr nonnull @.str.1, i64 7, i64 1, ptr %0)
  %10 = getelementptr i8, ptr %8, i64 8
  %.val14.i = load ptr, ptr %10, align 8
  %11 = load ptr, ptr %.val14.i, align 8
  %12 = tail call i32 (ptr, ptr, ...) @fprintf(ptr noundef %0, ptr noundef nonnull @.str, ptr noundef %11) #14
  %13 = getelementptr i8, ptr %8, i64 4
  %.val1516.i = load i32, ptr %13, align 4
  %14 = icmp sgt i32 %.val1516.i, 2
  br i1 %14, label %.lr.ph.i, label %Bac_PtrDumpBoxBlif.exit

.lr.ph.i:                                         ; preds = %6, %.lr.ph.i
  %indvars.iv.i = phi i64 [ %indvars.iv.next.i, %.lr.ph.i ], [ 2, %6 ]
  %.val13.i = load ptr, ptr %10, align 8
  %15 = getelementptr inbounds nuw ptr, ptr %.val13.i, i64 %indvars.iv.i
  %16 = load ptr, ptr %15, align 8
  %17 = or disjoint i64 %indvars.iv.i, 1
  %18 = getelementptr inbounds nuw ptr, ptr %.val13.i, i64 %17
  %19 = load ptr, ptr %18, align 8
  %20 = tail call i32 (ptr, ptr, ...) @fprintf(ptr noundef %0, ptr noundef nonnull @.str.2, ptr noundef %16, ptr noundef %19) #14
  %indvars.iv.next.i = add nuw nsw i64 %indvars.iv.i, 2
  %.val15.i = load i32, ptr %13, align 4
  %21 = trunc nuw i64 %indvars.iv.next.i to i32
  %22 = icmp sgt i32 %.val15.i, %21
  br i1 %22, label %.lr.ph.i, label %Bac_PtrDumpBoxBlif.exit, !llvm.loop !10

Bac_PtrDumpBoxBlif.exit:                          ; preds = %.lr.ph.i, %6
  %fputc.i = tail call i32 @fputc(i32 10, ptr %0)
  %indvars.iv.next = add nuw nsw i64 %indvars.iv, 1
  %.val6 = load i32, ptr %3, align 4
  %23 = sext i32 %.val6 to i64
  %24 = icmp slt i64 %indvars.iv.next, %23
  br i1 %24, label %6, label %.critedge, !llvm.loop !11

.critedge:                                        ; preds = %Bac_PtrDumpBoxBlif.exit, %2
  ret void
}